target datalayout = "e-m:e-p270:32:32-p271:32:32-p272:64:64-i64:64-i128:128-f80:128-n8:16:32:64-S128"
target triple = "x86_64-pc-linux-gnu"

%struct.BackendGlobalData = type <{ ptr, ptr, i8, i8, i8, i8, i8, i8, i8, i8, i8, [3 x i8], i32, ptr, ptr, ptr, ptr, ptr, ptr, ptr, ptr, ptr, ptr, ptr, ptr, ptr, i32, %struct.jvmtiCapabilities, i8, [3 x i8], %struct.jvmtiEventCallbacks, ptr, ptr, ptr, ptr, ptr, ptr, ptr, i32, [4 x i8], ptr, i64, i32, [4 x i8], ptr, i32, i32, i8, i8, [6 x i8] }>
%struct.jvmtiCapabilities = type { i64, i64 }
%struct.jvmtiEventCallbacks = type { ptr, ptr, ptr, ptr, ptr, ptr, ptr, ptr, ptr, ptr, ptr, ptr, ptr, ptr, ptr, ptr, ptr, ptr, ptr, ptr, ptr, ptr, ptr, ptr, ptr, ptr, ptr, ptr, ptr, ptr, ptr, ptr, ptr, ptr, ptr, ptr, ptr, ptr, ptr }
%struct.jvmtiInterface_1_ = type { ptr, ptr, ptr, ptr, ptr, ptr, ptr, ptr, ptr, ptr, ptr, ptr, ptr, ptr, ptr, ptr, ptr, ptr, ptr, ptr, ptr, ptr, ptr, ptr, ptr, ptr, ptr, ptr, ptr, ptr, ptr, ptr, ptr, ptr, ptr, ptr, ptr, ptr, ptr, ptr, ptr, ptr, ptr, ptr, ptr, ptr, ptr, ptr, ptr, ptr, ptr, ptr, ptr, ptr, ptr, ptr, ptr, ptr, ptr, ptr, ptr, ptr, ptr, ptr, ptr, ptr, ptr, ptr, ptr, ptr, ptr, ptr, ptr, ptr, ptr, ptr, ptr, ptr, ptr, ptr, ptr, ptr, ptr, ptr, ptr, ptr, ptr, ptr, ptr, ptr, ptr, ptr, ptr, ptr, ptr, ptr, ptr, ptr, ptr, ptr, ptr, ptr, ptr, ptr, ptr, ptr, ptr, ptr, ptr, ptr, ptr, ptr, ptr, ptr, ptr, ptr, ptr, ptr, ptr, ptr, ptr, ptr, ptr, ptr, ptr, ptr, ptr, ptr, ptr, ptr, ptr, ptr, ptr, ptr, ptr, ptr, ptr, ptr, ptr, ptr, ptr, ptr, ptr, ptr, ptr, ptr, ptr, ptr, ptr, ptr, ptr, ptr, ptr, ptr, ptr, ptr }
%struct.JNINativeInterface_ = type { ptr, ptr, ptr, ptr, ptr, ptr, ptr, ptr, ptr, ptr, ptr, ptr, ptr, ptr, ptr, ptr, ptr, ptr, ptr, ptr, ptr, ptr, ptr, ptr, ptr, ptr, ptr, ptr, ptr, ptr, ptr, ptr, ptr, ptr, ptr, ptr, ptr, ptr, ptr, ptr, ptr, ptr, ptr, ptr, ptr, ptr, ptr, ptr, ptr, ptr, ptr, ptr, ptr, ptr, ptr, ptr, ptr, ptr, ptr, ptr, ptr, ptr, ptr, ptr, ptr, ptr, ptr, ptr, ptr, ptr, ptr, ptr, ptr, ptr, ptr, ptr, ptr, ptr, ptr, ptr, ptr, ptr, ptr, ptr, ptr, ptr, ptr, ptr, ptr, ptr, ptr, ptr, ptr, ptr, ptr, ptr, ptr, ptr, ptr, ptr, ptr, ptr, ptr, ptr, ptr, ptr, ptr, ptr, ptr, ptr, ptr, ptr, ptr, ptr, ptr, ptr, ptr, ptr, ptr, ptr, ptr, ptr, ptr, ptr, ptr, ptr, ptr, ptr, ptr, ptr, ptr, ptr, ptr, ptr, ptr, ptr, ptr, ptr, ptr, ptr, ptr, ptr, ptr, ptr, ptr, ptr, ptr, ptr, ptr, ptr, ptr, ptr, ptr, ptr, ptr, ptr, ptr, ptr, ptr, ptr, ptr, ptr, ptr, ptr, ptr, ptr, ptr, ptr, ptr, ptr, ptr, ptr, ptr, ptr, ptr, ptr, ptr, ptr, ptr, ptr, ptr, ptr, ptr, ptr, ptr, ptr, ptr, ptr, ptr, ptr, ptr, ptr, ptr, ptr, ptr, ptr, ptr, ptr, ptr, ptr, ptr, ptr, ptr, ptr, ptr, ptr, ptr, ptr, ptr, ptr, ptr, ptr, ptr, ptr, ptr, ptr, ptr, ptr, ptr, ptr, ptr, ptr, ptr, ptr, ptr, ptr, ptr, ptr, ptr, ptr, ptr, ptr, ptr, ptr, ptr }

@gdata = external global ptr, align 8
@.str.16 = private unnamed_addr constant [6 x i8] c"JVMTI\00", align 1
@.str.17 = private unnamed_addr constant [62 x i8] c"src/jdk.jdwp.agent/share/native/libjdwp/ThreadReferenceImpl.c\00", align 1
@.str.18 = private unnamed_addr constant [5 x i8] c"%s()\00", align 1
@.str.20 = private unnamed_addr constant [4 x i8] c"JNI\00", align 1
@.str.21 = private unnamed_addr constant [14 x i8] c"PopLocalFrame\00", align 1
@.str.23 = private unnamed_addr constant [20 x i8] c"GetOwnedMonitorInfo\00", align 1

; Function Attrs: nounwind uwtable
define internal zeroext i8 @validateSuspendedThread(ptr noundef %0, ptr noundef %1) #0 {
  %3 = alloca i8, align 1
  %4 = alloca ptr, align 8
  %5 = alloca ptr, align 8
  %6 = alloca i32, align 4
  %7 = alloca i32, align 4
  store ptr %0, ptr %4, align 8
  store ptr %1, ptr %5, align 8
  %8 = load ptr, ptr %5, align 8
  %9 = call i32 @threadControl_suspendCount(ptr noundef %8, ptr noundef %7)
  store i32 %9, ptr %6, align 4
  %10 = load i32, ptr %6, align 4
  %11 = icmp ne i32 %10, 0
  br i1 %11, label %12, label %16

12:                                               ; preds = %2
  %13 = load ptr, ptr %4, align 8
  %14 = load i32, ptr %6, align 4
  %15 = call zeroext i16 @map2jdwpError(i32 noundef %14)
  call void @outStream_setError(ptr noundef %13, i16 noundef zeroext %15)
  store i8 0, ptr %3, align 1
  br label %22

16:                                               ; preds = %2
  %17 = load i32, ptr %7, align 4
  %18 = icmp eq i32 %17, 0
  br i1 %18, label %19, label %21

19:                                               ; preds = %16
  %20 = load ptr, ptr %4, align 8
  call void @outStream_setError(ptr noundef %20, i16 noundef zeroext 13)
  store i8 0, ptr %3, align 1
  br label %22

21:                                               ; preds = %16
  store i8 1, ptr %3, align 1
  br label %22

22:                                               ; preds = %21, %19, %12
  %23 = load i8, ptr %3, align 1
  ret i8 %23
}

; Function Attrs: nounwind uwtable
define internal zeroext i8 @ownedMonitors(ptr noundef %0, ptr noundef %1) #0 {
  %3 = alloca i8, align 1
  %4 = alloca ptr, align 8
  %5 = alloca ptr, align 8
  %6 = alloca ptr, align 8
  %7 = alloca ptr, align 8
  %8 = alloca i32, align 4
  %9 = alloca i32, align 4
  %10 = alloca ptr, align 8
  %11 = alloca i32, align 4
  %12 = alloca ptr, align 8
  store ptr %0, ptr %4, align 8
  store ptr %1, ptr %5, align 8
  %13 = call ptr @getEnv()
  store ptr %13, ptr %6, align 8
  %14 = load ptr, ptr %6, align 8
  %15 = load ptr, ptr %4, align 8
  %16 = call ptr @inStream_readThreadRef(ptr noundef %14, ptr noundef %15)
  store ptr %16, ptr %7, align 8
  %17 = load ptr, ptr %4, align 8
  %18 = call zeroext i16 @inStream_error(ptr noundef %17)
  %19 = icmp ne i16 %18, 0
  br i1 %19, label %20, label %21

20:                                               ; preds = %2
  store i8 1, ptr %3, align 1
  br label %107

21:                                               ; preds = %2
  %22 = load ptr, ptr %7, align 8
  %23 = call zeroext i8 @threadControl_isDebugThread(ptr noundef %22)
  %24 = icmp ne i8 %23, 0
  br i1 %24, label %25, label %27

25:                                               ; preds = %21
  %26 = load ptr, ptr %5, align 8
  call void @outStream_setError(ptr noundef %26, i16 noundef zeroext 10)
  store i8 1, ptr %3, align 1
  br label %107

27:                                               ; preds = %21
  %28 = load ptr, ptr %5, align 8
  %29 = load ptr, ptr %7, align 8
  %30 = call zeroext i8 @validateSuspendedThread(ptr noundef %28, ptr noundef %29)
  %31 = icmp ne i8 %30, 0
  br i1 %31, label %33, label %32

32:                                               ; preds = %27
  store i8 1, ptr %3, align 1
  br label %107

33:                                               ; preds = %27
  %34 = load ptr, ptr %6, align 8
  call void @createLocalRefSpace(ptr noundef %34, i32 noundef 1)
  store i32 0, ptr %9, align 4
  store ptr null, ptr %10, align 8
  %35 = load ptr, ptr @gdata, align 8
  %36 = getelementptr inbounds %struct.BackendGlobalData, ptr %35, i32 0, i32 38
  %37 = load i32, ptr %36, align 8
  %38 = and i32 %37, 4
  %39 = icmp ne i32 %38, 0
  br i1 %39, label %40, label %41

40:                                               ; preds = %33
  call void @log_message_begin(ptr noundef @.str.16, ptr noundef @.str.17, i32 noundef 376)
  call void (ptr, ...) @log_message_end(ptr noundef @.str.18, ptr noundef @.str.23)
  br label %42

41:                                               ; preds = %33
  br label %42

42:                                               ; preds = %41, %40
  %43 = load ptr, ptr @gdata, align 8
  %44 = getelementptr inbounds %struct.BackendGlobalData, ptr %43, i32 0, i32 0
  %45 = load ptr, ptr %44, align 8
  %46 = load ptr, ptr %45, align 8
  %47 = getelementptr inbounds %struct.jvmtiInterface_1_, ptr %46, i32 0, i32 9
  %48 = load ptr, ptr %47, align 8
  %49 = load ptr, ptr @gdata, align 8
  %50 = getelementptr inbounds %struct.BackendGlobalData, ptr %49, i32 0, i32 0
  %51 = load ptr, ptr %50, align 8
  %52 = load ptr, ptr %7, align 8
  %53 = call i32 %48(ptr noundef %51, ptr noundef %52, ptr noundef %9, ptr noundef %10)
  store i32 %53, ptr %8, align 4
  %54 = load i32, ptr %8, align 4
  %55 = icmp ne i32 %54, 0
  br i1 %55, label %56, label %60

56:                                               ; preds = %42
  %57 = load ptr, ptr %5, align 8
  %58 = load i32, ptr %8, align 4
  %59 = call zeroext i16 @map2jdwpError(i32 noundef %58)
  call void @outStream_setError(ptr noundef %57, i16 noundef zeroext %59)
  br label %87

60:                                               ; preds = %42
  %61 = load ptr, ptr %5, align 8
  %62 = load i32, ptr %9, align 4
  %63 = call zeroext i16 @outStream_writeInt(ptr noundef %61, i32 noundef %62)
  store i32 0, ptr %11, align 4
  br label %64

64:                                               ; preds = %83, %60
  %65 = load i32, ptr %11, align 4
  %66 = load i32, ptr %9, align 4
  %67 = icmp slt i32 %65, %66
  br i1 %67, label %68, label %86

68:                                               ; preds = %64
  %69 = load ptr, ptr %10, align 8
  %70 = load i32, ptr %11, align 4
  %71 = sext i32 %70 to i64
  %72 = getelementptr inbounds ptr, ptr %69, i64 %71
  %73 = load ptr, ptr %72, align 8
  store ptr %73, ptr %12, align 8
  %74 = load ptr, ptr %5, align 8
  %75 = load ptr, ptr %6, align 8
  %76 = load ptr, ptr %12, align 8
  %77 = call signext i8 @specificTypeKey(ptr noundef %75, ptr noundef %76)
  %78 = call zeroext i16 @outStream_writeByte(ptr noundef %74, i8 noundef signext %77)
  %79 = load ptr, ptr %6, align 8
  %80 = load ptr, ptr %5, align 8
  %81 = load ptr, ptr %12, align 8
  %82 = call zeroext i16 @outStream_writeObjectRef(ptr noundef %79, ptr noundef %80, ptr noundef %81)
  br label %83

83:                                               ; preds = %68
  %84 = load i32, ptr %11, align 4
  %85 = add nsw i32 %84, 1
  store i32 %85, ptr %11, align 4
  br label %64, !llvm.loop !8

86:                                               ; preds = %64
  br label %87

87:                                               ; preds = %86, %56
  %88 = load ptr, ptr %10, align 8
  %89 = icmp ne ptr %88, null
  br i1 %89, label %90, label %92

90:                                               ; preds = %87
  %91 = load ptr, ptr %10, align 8
  call void @jvmtiDeallocate(ptr noundef %91)
  br label %92

92:                                               ; preds = %90, %87
  %93 = load ptr, ptr @gdata, align 8
  %94 = getelementptr inbounds %struct.BackendGlobalData, ptr %93, i32 0, i32 38
  %95 = load i32, ptr %94, align 8
  %96 = and i32 %95, 2
  %97 = icmp ne i32 %96, 0
  br i1 %97, label %98, label %99

98:                                               ; preds = %92
  call void @log_message_begin(ptr noundef @.str.20, ptr noundef @.str.17, i32 noundef 392)
  call void (ptr, ...) @log_message_end(ptr noundef @.str.18, ptr noundef @.str.21)
  br label %100

99:                                               ; preds = %92
  br label %100

100:                                              ; preds = %99, %98
  %101 = load ptr, ptr %6, align 8
  %102 = load ptr, ptr %101, align 8
  %103 = getelementptr inbounds %struct.JNINativeInterface_, ptr %102, i32 0, i32 20
  %104 = load ptr, ptr %103, align 8
  %105 = load ptr, ptr %6, align 8
  %106 = call ptr %104(ptr noundef %105, ptr noundef null)
  store i8 1, ptr %3, align 1
  br label %107

107:                                              ; preds = %100, %32, %25, %20
  %108 = load i8, ptr %3, align 1
  ret i8 %108
}