; Function Attrs: nounwind uwtable
define internal noundef zeroext i8 @ownedMonitors(ptr noundef %0, ptr noundef %1) #0 {
  %3 = alloca i32, align 4
  %4 = alloca i32, align 4
  %5 = alloca ptr, align 8
  %6 = tail call ptr @getEnv() #4
  %7 = tail call ptr @inStream_readThreadRef(ptr noundef %6, ptr noundef %0) #4
  %8 = tail call zeroext i16 @inStream_error(ptr noundef %0) #4
  %.not = icmp eq i16 %8, 0
  br i1 %.not, label %9, label %61

9:                                                ; preds = %2
  %10 = tail call zeroext i8 @threadControl_isDebugThread(ptr noundef %7) #4
  %.not26 = icmp eq i8 %10, 0
  br i1 %.not26, label %12, label %11

11:                                               ; preds = %9
  tail call void @outStream_setError(ptr noundef %1, i16 noundef zeroext 10) #4
  br label %61

12:                                               ; preds = %9
  call void @llvm.lifetime.start.p0(i64 4, ptr nonnull %3)
  %13 = call i32 @threadControl_suspendCount(ptr noundef %7, ptr noundef nonnull %3) #4
  %.not.i = icmp eq i32 %13, 0
  br i1 %.not.i, label %16, label %14

14:                                               ; preds = %12
  %15 = call zeroext i16 @map2jdwpError(i32 noundef %13) #4
  br label %validateSuspendedThread.exit.thread

16:                                               ; preds = %12
  %17 = load i32, ptr %3, align 4
  %18 = icmp eq i32 %17, 0
  br i1 %18, label %validateSuspendedThread.exit.thread, label %19

validateSuspendedThread.exit.thread:              ; preds = %14, %16
  %.sink.i = phi i16 [ %15, %14 ], [ 13, %16 ]
  call void @outStream_setError(ptr noundef %1, i16 noundef zeroext %.sink.i) #4
  call void @llvm.lifetime.end.p0(i64 4, ptr nonnull %3)
  br label %61

19:                                               ; preds = %16
  call void @llvm.lifetime.end.p0(i64 4, ptr nonnull %3)
  call void @createLocalRefSpace(ptr noundef %6, i32 noundef 1) #4
  store i32 0, ptr %4, align 4
  store ptr null, ptr %5, align 8
  %20 = load ptr, ptr @gdata, align 8
  %21 = getelementptr inbounds i8, ptr %20, i64 528
  %22 = load i32, ptr %21, align 8
  %23 = and i32 %22, 4
  %.not28 = icmp eq i32 %23, 0
  br i1 %.not28, label %25, label %24

24:                                               ; preds = %19
  call void @log_message_begin(ptr noundef nonnull @.str.16, ptr noundef nonnull @.str.17, i32 noundef 376) #4
  call void (ptr, ...) @log_message_end(ptr noundef nonnull @.str.18, ptr noundef nonnull @.str.23) #4
  %.pre = load ptr, ptr @gdata, align 8
  br label %25

25:                                               ; preds = %19, %24
  %26 = phi ptr [ %20, %19 ], [ %.pre, %24 ]
  %27 = load ptr, ptr %26, align 8
  %28 = load ptr, ptr %27, align 8
  %29 = getelementptr inbounds i8, ptr %28, i64 72
  %30 = load ptr, ptr %29, align 8
  %31 = call i32 %30(ptr noundef nonnull %27, ptr noundef %7, ptr noundef nonnull %4, ptr noundef nonnull %5) #4
  %.not29 = icmp eq i32 %31, 0
  br i1 %.not29, label %34, label %32

32:                                               ; preds = %25
  %33 = call zeroext i16 @map2jdwpError(i32 noundef %31) #4
  call void @outStream_setError(ptr noundef %1, i16 noundef zeroext %33) #4
  br label %.loopexit

34:                                               ; preds = %25
  %35 = load i32, ptr %4, align 4
  %36 = call zeroext i16 @outStream_writeInt(ptr noundef %1, i32 noundef %35) #4
  %37 = load i32, ptr %4, align 4
  %38 = icmp sgt i32 %37, 0
  br i1 %38, label %.lr.ph, label %.loopexit

.lr.ph:                                           ; preds = %34, %.lr.ph
  %indvars.iv = phi i64 [ %indvars.iv.next, %.lr.ph ], [ 0, %34 ]
  %39 = load ptr, ptr %5, align 8
  %40 = getelementptr inbounds ptr, ptr %39, i64 %indvars.iv
  %41 = load ptr, ptr %40, align 8
  %42 = call signext i8 @specificTypeKey(ptr noundef %6, ptr noundef %41) #4
  %43 = call zeroext i16 @outStream_writeByte(ptr noundef %1, i8 noundef signext %42) #4
  %44 = call zeroext i16 @outStream_writeObjectRef(ptr noundef %6, ptr noundef %1, ptr noundef %41) #4
  %indvars.iv.next = add nuw nsw i64 %indvars.iv, 1
  %45 = load i32, ptr %4, align 4
  %46 = sext i32 %45 to i64
  %47 = icmp slt i64 %indvars.iv.next, %46
  br i1 %47, label %.lr.ph, label %.loopexit, !llvm.loop !8

.loopexit:                                        ; preds = %.lr.ph, %34, %32
  %48 = load ptr, ptr %5, align 8
  %.not30 = icmp eq ptr %48, null
  br i1 %.not30, label %50, label %49

49:                                               ; preds = %.loopexit
  call void @jvmtiDeallocate(ptr noundef nonnull %48) #4
  br label %50

50:                                               ; preds = %49, %.loopexit
  %51 = load ptr, ptr @gdata, align 8
  %52 = getelementptr inbounds i8, ptr %51, i64 528
  %53 = load i32, ptr %52, align 8
  %54 = and i32 %53, 2
  %.not31 = icmp eq i32 %54, 0
  br i1 %.not31, label %56, label %55

55:                                               ; preds = %50
  call void @log_message_begin(ptr noundef nonnull @.str.20, ptr noundef nonnull @.str.17, i32 noundef 392) #4
  call void (ptr, ...) @log_message_end(ptr noundef nonnull @.str.18, ptr noundef nonnull @.str.21) #4
  br label %56

56:                                               ; preds = %50, %55
  %57 = load ptr, ptr %6, align 8
  %58 = getelementptr inbounds i8, ptr %57, i64 160
  %59 = load ptr, ptr %58, align 8
  %60 = call ptr %59(ptr noundef nonnull %6, ptr noundef null) #4
  br label %61

61:                                               ; preds = %validateSuspendedThread.exit.thread, %2, %56, %11
  ret i8 1
}